; ModuleID = '6/713.c'
source_filename = "6/713.c"
target datalayout = "e-m:e-p270:32:32-p271:32:32-p272:64:64-i64:64-f80:128-n8:16:32:64-S128"
target triple = "x86_64-pc-linux-gnu"

@.str = private unnamed_addr constant [3 x i8] c"%d\00", align 1
@.str.1 = private unnamed_addr constant [5 x i8] c"%d%d\00", align 1
@.str.2 = private unnamed_addr constant [4 x i8] c"%d\0A\00", align 1

; Function Attrs: noinline nounwind uwtable
define dso_local i32 @main() #0 {
  %1 = alloca i32, align 4
  %2 = alloca [100 x i32], align 16
  %3 = alloca i32, align 4
  %4 = alloca i32, align 4
  %5 = alloca i32, align 4
  %6 = alloca i32, align 4
  %7 = alloca [100 x i32], align 16
  %8 = alloca [100 x i32], align 16
  %9 = alloca [100 x [100 x i32]], align 16
  store i32 0, i32* %1, align 4
  %10 = bitcast [100 x i32]* %2 to i8*
  call void @llvm.memset.p0i8.i64(i8* align 16 %10, i8 0, i64 400, i1 false)
  %11 = call i32 (i8*, ...) @__isoc99_scanf(i8* getelementptr inbounds ([3 x i8], [3 x i8]* @.str, i64 0, i64 0), i32* %5)
  store i32 0, i32* %6, align 4
  br label %12

12:                                               ; preds = %130, %0
  %13 = load i32, i32* %6, align 4
  %14 = load i32, i32* %5, align 4
  %15 = icmp slt i32 %13, %14
  br i1 %15, label %16, label %133

16:                                               ; preds = %12
  %17 = load i32, i32* %6, align 4
  %18 = sext i32 %17 to i64
  %19 = getelementptr inbounds [100 x i32], [100 x i32]* %7, i64 0, i64 %18
  %20 = load i32, i32* %6, align 4
  %21 = sext i32 %20 to i64
  %22 = getelementptr inbounds [100 x i32], [100 x i32]* %8, i64 0, i64 %21
  %23 = call i32 (i8*, ...) @__isoc99_scanf(i8* getelementptr inbounds ([5 x i8], [5 x i8]* @.str.1, i64 0, i64 0), i32* %19, i32* %22)
  store i32 0, i32* %3, align 4
  br label %24

24:                                               ; preds = %51, %16
  %25 = load i32, i32* %3, align 4
  %26 = load i32, i32* %6, align 4
  %27 = sext i32 %26 to i64
  %28 = getelementptr inbounds [100 x i32], [100 x i32]* %7, i64 0, i64 %27
  %29 = load i32, i32* %28, align 4
  %30 = icmp slt i32 %25, %29
  br i1 %30, label %31, label %54

31:                                               ; preds = %24
  store i32 0, i32* %4, align 4
  br label %32

32:                                               ; preds = %47, %31
  %33 = load i32, i32* %4, align 4
  %34 = load i32, i32* %6, align 4
  %35 = sext i32 %34 to i64
  %36 = getelementptr inbounds [100 x i32], [100 x i32]* %8, i64 0, i64 %35
  %37 = load i32, i32* %36, align 4
  %38 = icmp slt i32 %33, %37
  br i1 %38, label %39, label %50

39:                                               ; preds = %32
  %40 = load i32, i32* %3, align 4
  %41 = sext i32 %40 to i64
  %42 = getelementptr inbounds [100 x [100 x i32]], [100 x [100 x i32]]* %9, i64 0, i64 %41
  %43 = load i32, i32* %4, align 4
  %44 = sext i32 %43 to i64
  %45 = getelementptr inbounds [100 x i32], [100 x i32]* %42, i64 0, i64 %44
  %46 = call i32 (i8*, ...) @__isoc99_scanf(i8* getelementptr inbounds ([3 x i8], [3 x i8]* @.str, i64 0, i64 0), i32* %45)
  br label %47

47:                                               ; preds = %39
  %48 = load i32, i32* %4, align 4
  %49 = add nsw i32 %48, 1
  store i32 %49, i32* %4, align 4
  br label %32

50:                                               ; preds = %32
  br label %51

51:                                               ; preds = %50
  %52 = load i32, i32* %3, align 4
  %53 = add nsw i32 %52, 1
  store i32 %53, i32* %3, align 4
  br label %24

54:                                               ; preds = %24
  store i32 0, i32* %3, align 4
  br label %55

55:                                               ; preds = %88, %54
  %56 = load i32, i32* %3, align 4
  %57 = load i32, i32* %6, align 4
  %58 = sext i32 %57 to i64
  %59 = getelementptr inbounds [100 x i32], [100 x i32]* %7, i64 0, i64 %58
  %60 = load i32, i32* %59, align 4
  %61 = icmp slt i32 %56, %60
  br i1 %61, label %62, label %91

62:                                               ; preds = %55
  %63 = load i32, i32* %6, align 4
  %64 = sext i32 %63 to i64
  %65 = getelementptr inbounds [100 x i32], [100 x i32]* %2, i64 0, i64 %64
  %66 = load i32, i32* %65, align 4
  %67 = load i32, i32* %3, align 4
  %68 = sext i32 %67 to i64
  %69 = getelementptr inbounds [100 x [100 x i32]], [100 x [100 x i32]]* %9, i64 0, i64 %68
  %70 = getelementptr inbounds [100 x i32], [100 x i32]* %69, i64 0, i64 0
  %71 = load i32, i32* %70, align 16
  %72 = add nsw i32 %66, %71
  %73 = load i32, i32* %3, align 4
  %74 = sext i32 %73 to i64
  %75 = getelementptr inbounds [100 x [100 x i32]], [100 x [100 x i32]]* %9, i64 0, i64 %74
  %76 = load i32, i32* %6, align 4
  %77 = sext i32 %76 to i64
  %78 = getelementptr inbounds [100 x i32], [100 x i32]* %8, i64 0, i64 %77
  %79 = load i32, i32* %78, align 4
  %80 = sub nsw i32 %79, 1
  %81 = sext i32 %80 to i64
  %82 = getelementptr inbounds [100 x i32], [100 x i32]* %75, i64 0, i64 %81
  %83 = load i32, i32* %82, align 4
  %84 = add nsw i32 %72, %83
  %85 = load i32, i32* %6, align 4
  %86 = sext i32 %85 to i64
  %87 = getelementptr inbounds [100 x i32], [100 x i32]* %2, i64 0, i64 %86
  store i32 %84, i32* %87, align 4
  br label %88

88:                                               ; preds = %62
  %89 = load i32, i32* %3, align 4
  %90 = add nsw i32 %89, 1
  store i32 %90, i32* %3, align 4
  br label %55

91:                                               ; preds = %55
  store i32 1, i32* %4, align 4
  br label %92

92:                                               ; preds = %126, %91
  %93 = load i32, i32* %4, align 4
  %94 = load i32, i32* %6, align 4
  %95 = sext i32 %94 to i64
  %96 = getelementptr inbounds [100 x i32], [100 x i32]* %8, i64 0, i64 %95
  %97 = load i32, i32* %96, align 4
  %98 = sub nsw i32 %97, 1
  %99 = icmp slt i32 %93, %98
  br i1 %99, label %100, label %129

100:                                              ; preds = %92
  %101 = load i32, i32* %6, align 4
  %102 = sext i32 %101 to i64
  %103 = getelementptr inbounds [100 x i32], [100 x i32]* %2, i64 0, i64 %102
  %104 = load i32, i32* %103, align 4
  %105 = getelementptr inbounds [100 x [100 x i32]], [100 x [100 x i32]]* %9, i64 0, i64 0
  %106 = load i32, i32* %4, align 4
  %107 = sext i32 %106 to i64
  %108 = getelementptr inbounds [100 x i32], [100 x i32]* %105, i64 0, i64 %107
  %109 = load i32, i32* %108, align 4
  %110 = add nsw i32 %104, %109
  %111 = load i32, i32* %6, align 4
  %112 = sext i32 %111 to i64
  %113 = getelementptr inbounds [100 x i32], [100 x i32]* %7, i64 0, i64 %112
  %114 = load i32, i32* %113, align 4
  %115 = sub nsw i32 %114, 1
  %116 = sext i32 %115 to i64
  %117 = getelementptr inbounds [100 x [100 x i32]], [100 x [100 x i32]]* %9, i64 0, i64 %116
  %118 = load i32, i32* %4, align 4
  %119 = sext i32 %118 to i64
  %120 = getelementptr inbounds [100 x i32], [100 x i32]* %117, i64 0, i64 %119
  %121 = load i32, i32* %120, align 4
  %122 = add nsw i32 %110, %121
  %123 = load i32, i32* %6, align 4
  %124 = sext i32 %123 to i64
  %125 = getelementptr inbounds [100 x i32], [100 x i32]* %2, i64 0, i64 %124
  store i32 %122, i32* %125, align 4
  br label %126

126:                                              ; preds = %100
  %127 = load i32, i32* %4, align 4
  %128 = add nsw i32 %127, 1
  store i32 %128, i32* %4, align 4
  br label %92

129:                                              ; preds = %92
  br label %130

130:                                              ; preds = %129
  %131 = load i32, i32* %6, align 4
  %132 = add nsw i32 %131, 1
  store i32 %132, i32* %6, align 4
  br label %12

133:                                              ; preds = %12
  store i32 0, i32* %6, align 4
  br label %134

134:                                              ; preds = %144, %133
  %135 = load i32, i32* %6, align 4
  %136 = load i32, i32* %5, align 4
  %137 = icmp slt i32 %135, %136
  br i1 %137, label %138, label %147

138:                                              ; preds = %134
  %139 = load i32, i32* %6, align 4
  %140 = sext i32 %139 to i64
  %141 = getelementptr inbounds [100 x i32], [100 x i32]* %2, i64 0, i64 %140
  %142 = load i32, i32* %141, align 4
  %143 = call i32 (i8*, ...) @printf(i8* getelementptr inbounds ([4 x i8], [4 x i8]* @.str.2, i64 0, i64 0), i32 %142)
  br label %144

144:                                              ; preds = %138
  %145 = load i32, i32* %6, align 4
  %146 = add nsw i32 %145, 1
  store i32 %146, i32* %6, align 4
  br label %134

147:                                              ; preds = %134
  ret i32 0
}

; Function Attrs: argmemonly nounwind willreturn
declare void @llvm.memset.p0i8.i64(i8* nocapture writeonly, i8, i64, i1 immarg) #1

declare dso_local i32 @__isoc99_scanf(i8*, ...) #2

declare dso_local i32 @printf(i8*, ...) #2


!llvm.module.flags = !{!0}
!llvm.ident = !{!1}

!0 = !{i32 1, !"wchar_size", i32 4}
!1 = !{!"clang version 10.0.0-4ubuntu1 "}
